; Function Attrs: mustprogress nounwind uwtable
define void @_ZN3net25QuicStreamSequencerBuffer11RetireBlockEm(ptr noundef nonnull readonly align 8 captures(none) dereferenceable(120) %0, i64 noundef %1) local_unnamed_addr #6 align 2 {
  %3 = getelementptr inbounds nuw i8, ptr %0, i64 56
  %4 = load ptr, ptr %3, align 8, !tbaa !48
  %5 = getelementptr inbounds nuw ptr, ptr %4, i64 %1
  %6 = load ptr, ptr %5, align 8, !tbaa !56
  %7 = icmp eq ptr %6, null
  br i1 %7, label %9, label %8

8:                                                ; preds = %2
  tail call void @_ZdlPv(ptr noundef nonnull %6) #24
  %.pre = load ptr, ptr %3, align 8, !tbaa !48
  br label %9

9:                                                ; preds = %8, %2
  %10 = phi ptr [ %.pre, %8 ], [ %4, %2 ]
  %11 = getelementptr inbounds nuw ptr, ptr %10, i64 %1
  store ptr null, ptr %11, align 8, !tbaa !56
  ret void
}